; Function Attrs: mustprogress nounwind uwtable
define dso_local void @_ZN5clang13OpenCLOptions7supportEN4llvm9StringRefEb(ptr noundef nonnull align 8 dereferenceable(24) %0, ptr %1, i64 %2, i1 noundef zeroext %3) local_unnamed_addr #0 align 2 {
  %5 = zext i1 %3 to i8
  %6 = tail call noundef i32 @_ZN4llvm13StringMapImpl4hashENS_9StringRefE(ptr %1, i64 %2) #11
  %7 = tail call { ptr, i8 } @_ZN4llvm9StringMapIN5clang13OpenCLOptions16OpenCLOptionInfoENS_15MallocAllocatorEE21try_emplace_with_hashIJEEESt4pairINS_17StringMapIteratorIS3_EEbENS_9StringRefEjDpOT_(ptr noundef nonnull align 8 dereferenceable(24) %0, ptr %1, i64 %2, i32 noundef %6)
  %.fca.0.extract.i = extractvalue { ptr, i8 } %7, 0
  %8 = load ptr, ptr %.fca.0.extract.i, align 8
  %9 = getelementptr inbounds i8, ptr %8, i64 24
  store i8 %5, ptr %9, align 4
  ret void
}